target datalayout = "e-m:e-p270:32:32-p271:32:32-p272:64:64-i64:64-i128:128-f80:128-n8:16:32:64-S128"
target triple = "x86_64-pc-linux-gnu"

%struct.ssl_connection_st = type { %struct.ssl_st, ptr, i32, ptr, ptr, ptr, i32, ptr, i32, i32, i32, i32, %struct.OSSL_TIME, %struct.OSSL_TIME, %struct.ossl_statem_st, i32, ptr, ptr, i64, i64, i64, %struct.ossl_quic_tls_callbacks_st, ptr, ptr, %struct.anon, ptr, ptr, ptr, i32, ptr, %struct.ssl_dane_st, ptr, ptr, ptr, ptr, i32, [64 x i8], [64 x i8], [64 x i8], [64 x i8], [64 x i8], [64 x i8], [64 x i8], [64 x i8], [64 x i8], [64 x i8], [64 x i8], [64 x i8], ptr, [64 x i8], i64, i32, i64, [32 x i8], ptr, ptr, ptr, i64, ptr, [32 x i8], i64, i32, ptr, ptr, i32, i32, ptr, ptr, ptr, ptr, ptr, i64, ptr, ptr, i64, i32, i32, i32, i64, i32, i32, i64, i64, i64, %struct.anon.1, ptr, i32, ptr, ptr, ptr, i32, ptr, ptr, ptr, i32, i32, i32, i32, ptr, i64, i32, ptr, %struct.srp_ctx_st, ptr, %struct.record_layer_st, ptr, ptr, ptr, ptr, i64, i32, i32, i32, i64, i64, i64, ptr, ptr, ptr, ptr, ptr, i64, ptr, i64, ptr, i64 }
%struct.ssl_st = type { i32, ptr, ptr, ptr, %struct.CRYPTO_REF_COUNT, ptr, %struct.crypto_ex_data_st }
%struct.CRYPTO_REF_COUNT = type { i32 }
%struct.crypto_ex_data_st = type { ptr, ptr }
%struct.OSSL_TIME = type { i64 }
%struct.ossl_statem_st = type { i32, i32, i32, i32, i32, i32, i32, i32, i32, i32, i32, i32, i32, ptr, ptr, ptr, i8 }
%struct.ossl_quic_tls_callbacks_st = type { ptr, ptr, ptr, ptr, ptr, ptr }
%struct.anon = type { i64, [32 x i8], [32 x i8], ptr, ptr, i32, i32, i32, i32, [2 x i8], i32, i32, i32, i32, %struct.anon.0, [64 x i8], i64, [64 x i8], i64, i32, i32, ptr, i64, ptr, i64, i32, i8, i8, i16, ptr, i16 }
%struct.anon.0 = type { [128 x i8], i64, [128 x i8], i64, i64, i32, ptr, ptr, [4 x ptr], [4 x i16], i64, i32, ptr, i64, ptr, i64, ptr, ptr, ptr, i32, i64, ptr, i32, ptr, i64, ptr, i64, ptr, i64, ptr, ptr, ptr, ptr, i64, i64, ptr, ptr, i32, i32, i32, i32 }
%struct.ssl_dane_st = type { ptr, ptr, ptr, ptr, ptr, i32, i32, i32, i64 }
%struct.anon.1 = type { [29 x i8], ptr, ptr, ptr, i32, ptr, i16, i32, %struct.anon.2, i32, i32, i64, ptr, i64, ptr, i64, ptr, i64, ptr, i64, ptr, i64, ptr, ptr, ptr, ptr, ptr, ptr, ptr, i64, ptr, i64, i32, i32, i32, i32, ptr, i64, i32, i8, i32, [4 x i32], i32, i8, i8, i8, i8 }
%struct.anon.2 = type { ptr, ptr, ptr, i64 }
%struct.srp_ctx_st = type { ptr, ptr, ptr, ptr, ptr, ptr, ptr, ptr, ptr, ptr, ptr, ptr, ptr, ptr, i32, i64 }
%struct.record_layer_st = type { ptr, ptr, ptr, ptr, ptr, ptr, ptr, ptr, i64, i32, i64, [4 x i8], i64, i64, i8, ptr, i32, ptr, ptr, ptr, i64, i64, i64, i64, [32 x %struct.tls_record_st] }
%struct.tls_record_st = type { ptr, i32, i8, ptr, ptr, i64, i64, i16, [8 x i8] }
%struct.ssl_session_st = type { i32, i64, [64 x i8], [512 x i8], i64, [32 x i8], i64, [32 x i8], ptr, ptr, i32, ptr, ptr, ptr, i64, %struct.OSSL_TIME, %struct.OSSL_TIME, %struct.OSSL_TIME, i32, ptr, i64, i32, %struct.crypto_ex_data_st, %struct.anon.3, ptr, ptr, i64, i32, ptr, ptr, ptr, %struct.CRYPTO_REF_COUNT }
%struct.anon.3 = type { ptr, ptr, i64, i64, i32, i32, ptr, i64, i8 }

@.str.1 = private unnamed_addr constant [36 x i8] c"../openssl/ssl/statem/statem_srvr.c\00", align 1
@__func__.tls_post_process_client_key_exchange = private unnamed_addr constant [37 x i8] c"tls_post_process_client_key_exchange\00", align 1

; Function Attrs: inlinehint nounwind uwtable
define internal i32 @received_client_cert(ptr noundef %0) #3 {
  %2 = alloca ptr, align 8
  store ptr %0, ptr %2, align 8, !tbaa !11
  %3 = load ptr, ptr %2, align 8, !tbaa !11
  %4 = getelementptr inbounds nuw %struct.ssl_connection_st, ptr %3, i32 0, i32 54
  %5 = load ptr, ptr %4, align 8, !tbaa !97
  %6 = getelementptr inbounds nuw %struct.ssl_session_st, ptr %5, i32 0, i32 11
  %7 = load ptr, ptr %6, align 8, !tbaa !98
  %8 = icmp ne ptr %7, null
  br i1 %8, label %16, label %9

9:                                                ; preds = %1
  %10 = load ptr, ptr %2, align 8, !tbaa !11
  %11 = getelementptr inbounds nuw %struct.ssl_connection_st, ptr %10, i32 0, i32 54
  %12 = load ptr, ptr %11, align 8, !tbaa !97
  %13 = getelementptr inbounds nuw %struct.ssl_session_st, ptr %12, i32 0, i32 12
  %14 = load ptr, ptr %13, align 8, !tbaa !101
  %15 = icmp ne ptr %14, null
  br label %16

16:                                               ; preds = %9, %1
  %17 = phi i1 [ true, %1 ], [ %15, %9 ]
  %18 = zext i1 %17 to i32
  ret i32 %18
}

; Function Attrs: nounwind uwtable
define i32 @tls_post_process_client_key_exchange(ptr noundef %0, i32 noundef %1) #0 {
  %3 = alloca i32, align 4
  %4 = alloca ptr, align 8
  %5 = alloca i32, align 4
  store ptr %0, ptr %4, align 8, !tbaa !11
  store i32 %1, ptr %5, align 4, !tbaa !13
  %6 = load ptr, ptr %4, align 8, !tbaa !11
  %7 = getelementptr inbounds nuw %struct.ssl_connection_st, ptr %6, i32 0, i32 14
  %8 = getelementptr inbounds nuw %struct.ossl_statem_st, ptr %7, i32 0, i32 11
  %9 = load i32, ptr %8, align 4, !tbaa !255
  %10 = icmp ne i32 %9, 0
  br i1 %10, label %15, label %11

11:                                               ; preds = %2
  %12 = load ptr, ptr %4, align 8, !tbaa !11
  %13 = call i32 @received_client_cert(ptr noundef %12)
  %14 = icmp ne i32 %13, 0
  br i1 %14, label %21, label %15

15:                                               ; preds = %11, %2
  %16 = load ptr, ptr %4, align 8, !tbaa !11
  %17 = call i32 @ssl3_digest_cached_records(ptr noundef %16, i32 noundef 0)
  %18 = icmp ne i32 %17, 0
  br i1 %18, label %20, label %19

19:                                               ; preds = %15
  store i32 0, ptr %3, align 4
  br label %36

20:                                               ; preds = %15
  store i32 2, ptr %3, align 4
  br label %36

21:                                               ; preds = %11
  %22 = load ptr, ptr %4, align 8, !tbaa !11
  %23 = getelementptr inbounds nuw %struct.ssl_connection_st, ptr %22, i32 0, i32 24
  %24 = getelementptr inbounds nuw %struct.anon, ptr %23, i32 0, i32 3
  %25 = load ptr, ptr %24, align 8, !tbaa !242
  %26 = icmp ne ptr %25, null
  br i1 %26, label %29, label %27

27:                                               ; preds = %21
  call void @ERR_new()
  call void @ERR_set_debug(ptr noundef @.str.1, i32 noundef 3501, ptr noundef @__func__.tls_post_process_client_key_exchange)
  %28 = load ptr, ptr %4, align 8, !tbaa !11
  call void (ptr, i32, i32, ptr, ...) @ossl_statem_fatal(ptr noundef %28, i32 noundef 80, i32 noundef 786691, ptr noundef null)
  store i32 0, ptr %3, align 4
  br label %36

29:                                               ; preds = %21
  %30 = load ptr, ptr %4, align 8, !tbaa !11
  %31 = call i32 @ssl3_digest_cached_records(ptr noundef %30, i32 noundef 1)
  %32 = icmp ne i32 %31, 0
  br i1 %32, label %34, label %33

33:                                               ; preds = %29
  store i32 0, ptr %3, align 4
  br label %36

34:                                               ; preds = %29
  br label %35

35:                                               ; preds = %34
  store i32 2, ptr %3, align 4
  br label %36

36:                                               ; preds = %35, %33, %27, %20, %19
  %37 = load i32, ptr %3, align 4
  ret i32 %37
}