; Function Attrs: nounwind uwtable
define range(i32 0, 3) i32 @tls_post_process_client_key_exchange(ptr noundef %0, i32 %1) local_unnamed_addr #1 {
  %3 = getelementptr inbounds nuw i8, ptr %0, i64 196
  %4 = load i32, ptr %3, align 4, !tbaa !274
  %.not = icmp eq i32 %4, 0
  br i1 %.not, label %5, label %11

5:                                                ; preds = %2
  %6 = getelementptr i8, ptr %0, i64 2304
  %.val = load ptr, ptr %6, align 8, !tbaa !79
  %7 = getelementptr inbounds nuw i8, ptr %.val, i64 696
  %8 = load ptr, ptr %7, align 8, !tbaa !80
  %.not.i = icmp eq ptr %8, null
  br i1 %.not.i, label %received_client_cert.exit, label %received_client_cert.exit.thread

received_client_cert.exit:                        ; preds = %5
  %9 = getelementptr inbounds nuw i8, ptr %.val, i64 704
  %10 = load ptr, ptr %9, align 8, !tbaa !83
  %.not12 = icmp eq ptr %10, null
  br i1 %.not12, label %11, label %received_client_cert.exit.thread

11:                                               ; preds = %received_client_cert.exit, %2
  %12 = tail call i32 @ssl3_digest_cached_records(ptr noundef nonnull %0, i32 noundef 0) #12
  %.not9 = icmp eq i32 %12, 0
  %. = select i1 %.not9, i32 0, i32 2
  br label %18

received_client_cert.exit.thread:                 ; preds = %5, %received_client_cert.exit
  %13 = getelementptr inbounds nuw i8, ptr %0, i64 424
  %14 = load ptr, ptr %13, align 8, !tbaa !231
  %.not7 = icmp eq ptr %14, null
  br i1 %.not7, label %15, label %16

15:                                               ; preds = %received_client_cert.exit.thread
  tail call void @ERR_new() #12
  tail call void @ERR_set_debug(ptr noundef nonnull @.str.1, i32 noundef 3501, ptr noundef nonnull @__func__.tls_post_process_client_key_exchange) #12
  tail call void (ptr, i32, i32, ptr, ...) @ossl_statem_fatal(ptr noundef nonnull %0, i32 noundef 80, i32 noundef 786691, ptr noundef null) #12
  br label %18

16:                                               ; preds = %received_client_cert.exit.thread
  %17 = tail call i32 @ssl3_digest_cached_records(ptr noundef nonnull %0, i32 noundef 1) #12
  %.not8 = icmp eq i32 %17, 0
  %.10 = select i1 %.not8, i32 0, i32 2
  br label %18

18:                                               ; preds = %16, %11, %15
  %.0 = phi i32 [ 0, %15 ], [ %., %11 ], [ %.10, %16 ]
  ret i32 %.0
}